; ModuleID = 'source-C-CXX/12/114.c'
source_filename = "source-C-CXX/12/114.c"
target datalayout = "e-m:e-p270:32:32-p271:32:32-p272:64:64-i64:64-f80:128-n8:16:32:64-S128"
target triple = "x86_64-pc-linux-gnu"

%struct._IO_FILE = type { i32, i8*, i8*, i8*, i8*, i8*, i8*, i8*, i8*, i8*, i8*, i8*, %struct._IO_marker*, %struct._IO_FILE*, i32, i32, i64, i16, i8, [1 x i8], i8*, i64, %struct._IO_codecvt*, %struct._IO_wide_data*, %struct._IO_FILE*, i8*, i64, i32, [20 x i8] }
%struct._IO_marker = type opaque
%struct._IO_codecvt = type opaque
%struct._IO_wide_data = type opaque

@.str = private unnamed_addr constant [3 x i8] c"%d\00", align 1
@.str.1 = private unnamed_addr constant [4 x i8] c" %d\00", align 1
@stdin = external local_unnamed_addr global %struct._IO_FILE*, align 8

; Function Attrs: nofree nounwind sspstrong uwtable
define dso_local i32 @main() local_unnamed_addr #0 {
  %1 = alloca i32, align 4
  %2 = alloca [100000 x i32], align 16
  %3 = bitcast i32* %1 to i8*
  call void @llvm.lifetime.start.p0i8(i64 4, i8* nonnull %3) #3
  %4 = bitcast [100000 x i32]* %2 to i8*
  call void @llvm.lifetime.start.p0i8(i64 400000, i8* nonnull %4) #3
  %5 = call i32 (i8*, ...) @__isoc99_scanf(i8* getelementptr inbounds ([3 x i8], [3 x i8]* @.str, i64 0, i64 0), i32* nonnull %1)
  %6 = load i32, i32* %1, align 4, !tbaa !5
  %7 = icmp slt i32 %6, 1
  br i1 %7, label %19, label %8

8:                                                ; preds = %0, %8
  %9 = phi i64 [ %12, %8 ], [ 1, %0 ]
  %10 = getelementptr inbounds [100000 x i32], [100000 x i32]* %2, i64 0, i64 %9
  %11 = call i32 (i8*, ...) @__isoc99_scanf(i8* getelementptr inbounds ([3 x i8], [3 x i8]* @.str, i64 0, i64 0), i32* nonnull %10)
  %12 = add nuw nsw i64 %9, 1
  %13 = load i32, i32* %1, align 4, !tbaa !5
  %14 = sext i32 %13 to i64
  %15 = icmp slt i64 %9, %14
  br i1 %15, label %8, label %16, !llvm.loop !9

16:                                               ; preds = %8
  %17 = getelementptr inbounds [100000 x i32], [100000 x i32]* %2, i64 0, i64 1
  %18 = load i32, i32* %17, align 4, !tbaa !5
  br label %19

19:                                               ; preds = %16, %0
  %20 = phi i32 [ %18, %16 ], [ undef, %0 ]
  %21 = call i32 (i8*, ...) @printf(i8* nonnull dereferenceable(1) getelementptr inbounds ([3 x i8], [3 x i8]* @.str, i64 0, i64 0), i32 %20)
  %22 = load i32, i32* %1, align 4, !tbaa !5
  %23 = icmp slt i32 %22, 2
  br i1 %23, label %89, label %24

24:                                               ; preds = %19, %83
  %25 = phi i64 [ %88, %83 ], [ 0, %19 ]
  %26 = phi i32 [ %84, %83 ], [ %22, %19 ]
  %27 = phi i64 [ %85, %83 ], [ 2, %19 ]
  %28 = add i64 %25, 1
  %29 = getelementptr inbounds [100000 x i32], [100000 x i32]* %2, i64 0, i64 %27
  %30 = load i32, i32* %29, align 4, !tbaa !5
  %31 = and i64 %28, 3
  %32 = icmp ult i64 %25, 3
  br i1 %32, label %61, label %33

33:                                               ; preds = %24
  %34 = and i64 %28, -4
  br label %35

35:                                               ; preds = %35, %33
  %36 = phi i64 [ 1, %33 ], [ %58, %35 ]
  %37 = phi i32 [ 0, %33 ], [ %57, %35 ]
  %38 = phi i64 [ %34, %33 ], [ %59, %35 ]
  %39 = getelementptr inbounds [100000 x i32], [100000 x i32]* %2, i64 0, i64 %36
  %40 = load i32, i32* %39, align 4, !tbaa !5
  %41 = icmp eq i32 %30, %40
  %42 = add nuw nsw i64 %36, 1
  %43 = getelementptr inbounds [100000 x i32], [100000 x i32]* %2, i64 0, i64 %42
  %44 = load i32, i32* %43, align 4, !tbaa !5
  %45 = icmp eq i32 %30, %44
  %46 = add nuw nsw i64 %36, 2
  %47 = getelementptr inbounds [100000 x i32], [100000 x i32]* %2, i64 0, i64 %46
  %48 = load i32, i32* %47, align 4, !tbaa !5
  %49 = icmp eq i32 %30, %48
  %50 = add nuw nsw i64 %36, 3
  %51 = getelementptr inbounds [100000 x i32], [100000 x i32]* %2, i64 0, i64 %50
  %52 = load i32, i32* %51, align 4, !tbaa !5
  %53 = icmp eq i32 %30, %52
  %54 = select i1 %53, i1 true, i1 %49
  %55 = select i1 %54, i1 true, i1 %45
  %56 = select i1 %55, i1 true, i1 %41
  %57 = select i1 %56, i32 1, i32 %37
  %58 = add nuw nsw i64 %36, 4
  %59 = add i64 %38, -4
  %60 = icmp eq i64 %59, 0
  br i1 %60, label %61, label %35, !llvm.loop !11

61:                                               ; preds = %35, %24
  %62 = phi i32 [ undef, %24 ], [ %57, %35 ]
  %63 = phi i64 [ 1, %24 ], [ %58, %35 ]
  %64 = phi i32 [ 0, %24 ], [ %57, %35 ]
  %65 = icmp eq i64 %31, 0
  br i1 %65, label %77, label %66

66:                                               ; preds = %61, %66
  %67 = phi i64 [ %74, %66 ], [ %63, %61 ]
  %68 = phi i32 [ %73, %66 ], [ %64, %61 ]
  %69 = phi i64 [ %75, %66 ], [ %31, %61 ]
  %70 = getelementptr inbounds [100000 x i32], [100000 x i32]* %2, i64 0, i64 %67
  %71 = load i32, i32* %70, align 4, !tbaa !5
  %72 = icmp eq i32 %30, %71
  %73 = select i1 %72, i32 1, i32 %68
  %74 = add nuw nsw i64 %67, 1
  %75 = add i64 %69, -1
  %76 = icmp eq i64 %75, 0
  br i1 %76, label %77, label %66, !llvm.loop !12

77:                                               ; preds = %66, %61
  %78 = phi i32 [ %62, %61 ], [ %73, %66 ]
  %79 = icmp eq i32 %78, 0
  br i1 %79, label %80, label %83

80:                                               ; preds = %77
  %81 = call i32 (i8*, ...) @printf(i8* nonnull dereferenceable(1) getelementptr inbounds ([4 x i8], [4 x i8]* @.str.1, i64 0, i64 0), i32 %30)
  %82 = load i32, i32* %1, align 4, !tbaa !5
  br label %83

83:                                               ; preds = %80, %77
  %84 = phi i32 [ %82, %80 ], [ %26, %77 ]
  %85 = add nuw nsw i64 %27, 1
  %86 = sext i32 %84 to i64
  %87 = icmp slt i64 %27, %86
  %88 = add i64 %25, 1
  br i1 %87, label %24, label %89, !llvm.loop !14

89:                                               ; preds = %83, %19
  %90 = load %struct._IO_FILE*, %struct._IO_FILE** @stdin, align 8, !tbaa !15
  %91 = call i32 @getc(%struct._IO_FILE* %90) #3
  %92 = load %struct._IO_FILE*, %struct._IO_FILE** @stdin, align 8, !tbaa !15
  %93 = call i32 @getc(%struct._IO_FILE* %92) #3
  call void @llvm.lifetime.end.p0i8(i64 400000, i8* nonnull %4) #3
  call void @llvm.lifetime.end.p0i8(i64 4, i8* nonnull %3) #3
  ret i32 0
}

; Function Attrs: argmemonly mustprogress nofree nosync nounwind willreturn
declare void @llvm.lifetime.start.p0i8(i64 immarg, i8* nocapture) #1

; Function Attrs: nofree nounwind
declare noundef i32 @__isoc99_scanf(i8* nocapture noundef readonly, ...) local_unnamed_addr #2

; Function Attrs: nofree nounwind
declare noundef i32 @printf(i8* nocapture noundef readonly, ...) local_unnamed_addr #2

; Function Attrs: argmemonly mustprogress nofree nosync nounwind willreturn
declare void @llvm.lifetime.end.p0i8(i64 immarg, i8* nocapture) #1

; Function Attrs: nofree nounwind
declare noundef i32 @getc(%struct._IO_FILE* nocapture noundef) local_unnamed_addr #2


!llvm.module.flags = !{!0, !1, !2, !3}
!llvm.ident = !{!4}

!0 = !{i32 1, !"wchar_size", i32 4}
!1 = !{i32 7, !"PIC Level", i32 2}
!2 = !{i32 7, !"PIE Level", i32 2}
!3 = !{i32 7, !"uwtable", i32 1}
!4 = !{!"clang version 13.0.0"}
!5 = !{!6, !6, i64 0}
!6 = !{!"int", !7, i64 0}
!7 = !{!"omnipotent char", !8, i64 0}
!8 = !{!"Simple C/C++ TBAA"}
!9 = distinct !{!9, !10}
!10 = !{!"llvm.loop.mustprogress"}
!11 = distinct !{!11, !10}
!12 = distinct !{!12, !13}
!13 = !{!"llvm.loop.unroll.disable"}
!14 = distinct !{!14, !10}
!15 = !{!16, !16, i64 0}
!16 = !{!"any pointer", !7, i64 0}
